(dp1
S'OriginalConfig'
p2
ccopy_reg
_reconstructor
p3
(cWMCore.Configuration
Configuration
p4
c__builtin__
object
p5
NtRp6
(dp7
S'Site'
p8
g3
(cWMCore.Configuration
ConfigSection
p9
g5
NtRp10
(dp11
S'_internal_documentation'
p12
S''
sS'_internal_settings'
p13
c__builtin__
set
p14
((lp15
S'storageSite'
p16
atRp17
sS'_internal_name'
p18
g8
sS'_internal_docstrings'
p19
(dp20
sS'_internal_children'
p21
g14
((ltRp22
sg16
S'T2_UK_SGrid_RALPP'
p23
sS'_internal_parent_ref'
p24
NsbsS'_internal_sections'
p25
(lp26
S'General'
p27
aS'JobType'
p28
aS'Data'
p29
ag8
aS'User'
p30
asg27
g3
(g9
g5
NtRp31
(dp32
g12
S''
sg13
g14
((lp33
S'workArea'
p34
aS'requestName'
p35
aS'serverUrl'
p36
atRp37
sg18
g27
sg36
S'cmsweb.cern.ch'
p38
sg19
(dp39
sg21
g14
((ltRp40
sg35
S'SIM'
p41
sg24
Nsg34
S'ttbar'
p42
sbsS'_internal_webapps'
p43
(lp44
sg30
g3
(g9
g5
NtRp45
(dp46
g12
S''
sg13
g14
((ltRp47
sg18
g30
sg19
(dp48
sg21
g14
((ltRp49
sg24
NsbsS'_internal_components'
p50
(lp51
sg29
g3
(g9
g5
NtRp52
(dp53
S'outLFN'
p54
S'/store/user/dcieri/ttbar_SIM'
p55
sS'totalUnits'
p56
I5000
sS'unitsPerJob'
p57
I10
sg12
S''
sg13
g14
((lp58
g54
aS'publication'
p59
ag57
aS'splitting'
p60
aS'publishDataName'
p61
aS'primaryDataset'
p62
ag56
atRp63
sg18
g29
sg60
S'EventBased'
p64
sg19
(dp65
sg21
g14
((ltRp66
sg61
S'ttbar_SIM'
p67
sg24
Nsg62
g42
sg59
I01
sbsg28
g3
(g9
g5
NtRp68
(dp69
S'filecacheurl'
p70
S'https://cmsweb.cern.ch/crabcache'
p71
sg12
S''
sg13
g14
((lp72
g70
aS'pluginName'
p73
aS'capath'
p74
aS'allowNonProductionCMSSW'
p75
aS'psetName'
p76
aS'proxyfilename'
p77
atRp78
sg18
g28
sg19
(dp79
sg73
S'PrivateMC'
p80
sg74
S'/etc/grid-security/certificates/'
p81
sg21
g14
((ltRp82
sg75
I01
sg76
S'TTbar_Tauola_14TeV_cfi_GEN_SIM.py'
p83
sg24
Nsg77
S'/tmp/x509up_u62281'
p84
sbsbsS'voGroup'
p85
S''
sS'Server'
p86
g38
sS'instance'
p87
S'prod'
p88
sS'RequestName'
p89
S'150129_145223_crab3test-2:dcieri_crab_SIM'
p90
sS'voRole'
p91
S''
sS'Port'
p92
S''
s.