(dp1
S'OriginalConfig'
p2
ccopy_reg
_reconstructor
p3
(cWMCore.Configuration
Configuration
p4
c__builtin__
object
p5
NtRp6
(dp7
S'Site'
p8
g3
(cWMCore.Configuration
ConfigSection
p9
g5
NtRp10
(dp11
S'_internal_documentation'
p12
S''
sS'_internal_settings'
p13
c__builtin__
set
p14
((lp15
S'whitelist'
p16
aS'storageSite'
p17
atRp18
sS'_internal_name'
p19
g8
sS'_internal_docstrings'
p20
(dp21
sS'_internal_children'
p22
g14
((ltRp23
sg17
S'T2_UK_SGrid_RALPP'
p24
sS'_internal_parent_ref'
p25
Nsg16
(lp26
S'T3_UK_London_QMUL'
p27
aS'T3_UK_London_RHUL'
p28
aS'T3_UK_London_UCL'
p29
aS'T3_UK_SGrid_Oxford'
p30
aS'T3_UK_ScotGrid_ECDF'
p31
aS'T3_UK_ScotGrid_GLA'
p32
aS'T2_UK_London_Brunel'
p33
aS'T2_UK_London_IC'
p34
aS'T2_UK_SGrid_Bristol'
p35
ag24
asbsS'_internal_sections'
p36
(lp37
S'General'
p38
aS'JobType'
p39
aS'Data'
p40
ag8
aS'User'
p41
aS'Debug'
p42
asg38
g3
(g9
g5
NtRp43
(dp44
g12
S''
sg13
g14
((lp45
S'workArea'
p46
aS'requestName'
p47
atRp48
sg19
g38
sg20
(dp49
sg22
g14
((ltRp50
sg47
S'PU0'
p51
sg25
Nsg46
S'TTbar_StubFixed_Davide'
p52
sbsS'_internal_webapps'
p53
(lp54
sg41
g3
(g9
g5
NtRp55
(dp56
g12
S''
sg13
g14
((ltRp57
sg19
g41
sg20
(dp58
sg22
g14
((ltRp59
sg25
NsbsS'_internal_components'
p60
(lp61
sg42
g3
(g9
g5
NtRp62
(dp63
g12
S''
sg13
g14
((ltRp64
sg19
g42
sg20
(dp65
sg22
g14
((ltRp66
sg25
Nsbsg40
g3
(g9
g5
NtRp67
(dp68
S'inputDataset'
p69
S'/ttbar/dcieri-ttbar_SIM-130075366148575c102f0d64fd3ac8f7/USER'
p70
sS'ignoreLocality'
p71
I01
sS'publication'
p72
I01
sS'splitting'
p73
S'FileBased'
p74
sS'unitsPerJob'
p75
I1
sg12
S''
sg13
g14
((lp76
g69
ag71
ag72
ag75
aS'publishDataName'
p77
aS'inputDBS'
p78
ag73
aS'outLFNDirBase'
p79
atRp80
sg77
S'ttbarPU0_stubfix_Davide'
p81
sg19
g40
sg78
S'phys03'
p82
sg20
(dp83
sg22
g14
((ltRp84
sg79
S'/store/user/dcieri/ttbarPU0_stubfix_Davide'
p85
sg25
Nsbsg39
g3
(g9
g5
NtRp86
(dp87
g12
S''
sg13
g14
((lp88
S'psetName'
p89
aS'pluginName'
p90
aS'allowUndistributedCMSSW'
p91
atRp92
sg19
g39
sg20
(dp93
sg90
S'Analysis'
p94
sg22
g14
((ltRp95
sg91
I01
sg89
S'step2_PU.py'
p96
sg25
NsbsbsS'voGroup'
p97
S''
sS'Server'
p98
S'cmsweb.cern.ch'
p99
sS'instance'
p100
S'prod'
p101
sS'RequestName'
p102
S'150730_094226:dcieri_crab_PU0'
p103
sS'voRole'
p104
S'NULL'
p105
sS'Port'
p106
S''
s.